; ModuleID = 'source-C-CXX/12/1808.cpp'
source_filename = "source-C-CXX/12/1808.cpp"
target datalayout = "e-m:e-p270:32:32-p271:32:32-p272:64:64-i64:64-f80:128-n8:16:32:64-S128"
target triple = "x86_64-pc-linux-gnu"

%"class.std::ios_base::Init" = type { i8 }
%"class.std::basic_istream" = type { i32 (...)**, i64, %"class.std::basic_ios" }
%"class.std::basic_ios" = type { %"class.std::ios_base", %"class.std::basic_ostream"*, i8, i8, %"class.std::basic_streambuf"*, %"class.std::ctype"*, %"class.std::num_put"*, %"class.std::num_get"* }
%"class.std::ios_base" = type { i32 (...)**, i64, i64, i32, i32, i32, %"struct.std::ios_base::_Callback_list"*, %"struct.std::ios_base::_Words", [8 x %"struct.std::ios_base::_Words"], i32, %"struct.std::ios_base::_Words"*, %"class.std::locale" }
%"struct.std::ios_base::_Callback_list" = type { %"struct.std::ios_base::_Callback_list"*, void (i32, %"class.std::ios_base"*, i32)*, i32, i32 }
%"struct.std::ios_base::_Words" = type { i8*, i64 }
%"class.std::locale" = type { %"class.std::locale::_Impl"* }
%"class.std::locale::_Impl" = type { i32, %"class.std::locale::facet"**, i64, %"class.std::locale::facet"**, i8** }
%"class.std::locale::facet" = type <{ i32 (...)**, i32, [4 x i8] }>
%"class.std::basic_ostream" = type { i32 (...)**, %"class.std::basic_ios" }
%"class.std::basic_streambuf" = type { i32 (...)**, i8*, i8*, i8*, i8*, i8*, i8*, %"class.std::locale" }
%"class.std::ctype" = type <{ %"class.std::locale::facet.base", [4 x i8], %struct.__locale_struct*, i8, [7 x i8], i32*, i32*, i16*, i8, [256 x i8], [256 x i8], i8, [6 x i8] }>
%"class.std::locale::facet.base" = type <{ i32 (...)**, i32 }>
%struct.__locale_struct = type { [13 x %struct.__locale_data*], i16*, i32*, i32*, [13 x i8*] }
%struct.__locale_data = type opaque
%"class.std::num_put" = type { %"class.std::locale::facet.base", [4 x i8] }
%"class.std::num_get" = type { %"class.std::locale::facet.base", [4 x i8] }

@_ZStL8__ioinit = internal global %"class.std::ios_base::Init" zeroinitializer, align 1
@__dso_handle = external hidden global i8
@_ZSt3cin = external global %"class.std::basic_istream", align 8
@_ZSt4cout = external global %"class.std::basic_ostream", align 8
@.str = private unnamed_addr constant [2 x i8] c" \00", align 1
@llvm.global_ctors = appending global [1 x { i32, void ()*, i8* }] [{ i32, void ()*, i8* } { i32 65535, void ()* @_GLOBAL__sub_I_1808.cpp, i8* null }]

declare void @_ZNSt8ios_base4InitC1Ev(%"class.std::ios_base::Init"* nonnull align 1 dereferenceable(1)) unnamed_addr #0

; Function Attrs: nounwind
declare void @_ZNSt8ios_base4InitD1Ev(%"class.std::ios_base::Init"* nonnull align 1 dereferenceable(1)) unnamed_addr #1

; Function Attrs: nofree nounwind
declare i32 @__cxa_atexit(void (i8*)*, i8*, i8*) local_unnamed_addr #2

; Function Attrs: mustprogress norecurse sspstrong uwtable
define dso_local i32 @main() local_unnamed_addr #3 {
  %1 = alloca i32, align 4
  %2 = bitcast i32* %1 to i8*
  call void @llvm.lifetime.start.p0i8(i64 4, i8* nonnull %2) #7
  %3 = call nonnull align 8 dereferenceable(16) %"class.std::basic_istream"* @_ZNSirsERi(%"class.std::basic_istream"* nonnull align 8 dereferenceable(16) @_ZSt3cin, i32* nonnull align 4 dereferenceable(4) %1)
  %4 = load i32, i32* %1, align 4, !tbaa !5
  %5 = zext i32 %4 to i64
  %6 = call i8* @llvm.stacksave()
  %7 = alloca i32, i64 %5, align 16
  %8 = load i32, i32* %1, align 4, !tbaa !5
  %9 = icmp sgt i32 %8, 0
  br i1 %9, label %18, label %149

10:                                               ; preds = %18
  %11 = icmp sgt i32 %23, 0
  br i1 %11, label %12, label %149

12:                                               ; preds = %10
  %13 = add nsw i32 %23, -1
  %14 = zext i32 %23 to i64
  %15 = add nsw i64 %14, -1
  %16 = zext i32 %13 to i64
  %17 = zext i32 %23 to i64
  br label %26

18:                                               ; preds = %0, %18
  %19 = phi i64 [ %22, %18 ], [ 0, %0 ]
  %20 = getelementptr inbounds i32, i32* %7, i64 %19
  %21 = call nonnull align 8 dereferenceable(16) %"class.std::basic_istream"* @_ZNSirsERi(%"class.std::basic_istream"* nonnull align 8 dereferenceable(16) @_ZSt3cin, i32* nonnull align 4 dereferenceable(4) %20)
  %22 = add nuw nsw i64 %19, 1
  %23 = load i32, i32* %1, align 4, !tbaa !5
  %24 = sext i32 %23 to i64
  %25 = icmp slt i64 %22, %24
  br i1 %25, label %18, label %10, !llvm.loop !9

26:                                               ; preds = %12, %134
  %27 = phi i64 [ 0, %12 ], [ %136, %134 ]
  %28 = phi i32 [ 0, %12 ], [ %135, %134 ]
  %29 = getelementptr inbounds i32, i32* %7, i64 %27
  %30 = icmp ult i64 %27, %16
  br i1 %30, label %39, label %134

31:                                               ; preds = %134
  %32 = icmp sgt i32 %23, %135
  br i1 %32, label %33, label %149

33:                                               ; preds = %31
  %34 = load i32, i32* %7, align 16, !tbaa !5
  %35 = call nonnull align 8 dereferenceable(8) %"class.std::basic_ostream"* @_ZNSolsEi(%"class.std::basic_ostream"* nonnull align 8 dereferenceable(8) @_ZSt4cout, i32 %34)
  %36 = load i32, i32* %1, align 4, !tbaa !5
  %37 = sub nsw i32 %36, %135
  %38 = icmp sgt i32 %37, 1
  br i1 %38, label %138, label %149

39:                                               ; preds = %26, %129
  %40 = phi i64 [ %133, %129 ], [ 0, %26 ]
  %41 = phi i64 [ %131, %129 ], [ %15, %26 ]
  %42 = phi i32 [ %130, %129 ], [ %28, %26 ]
  %43 = add i64 %40, -7
  %44 = lshr i64 %43, 3
  %45 = add nuw nsw i64 %44, 1
  %46 = add i64 %40, 1
  %47 = load i32, i32* %29, align 4, !tbaa !5
  %48 = icmp eq i32 %47, 0
  br i1 %48, label %134, label %49

49:                                               ; preds = %39
  %50 = getelementptr inbounds i32, i32* %7, i64 %41
  %51 = load i32, i32* %50, align 4, !tbaa !5
  %52 = icmp eq i32 %51, %47
  br i1 %52, label %53, label %129

53:                                               ; preds = %49
  %54 = icmp slt i64 %41, %14
  br i1 %54, label %55, label %115

55:                                               ; preds = %53
  %56 = icmp ult i64 %46, 8
  br i1 %56, label %113, label %57

57:                                               ; preds = %55
  %58 = and i64 %46, -8
  %59 = add i64 %41, %58
  %60 = and i64 %45, 1
  %61 = icmp ult i64 %43, 8
  br i1 %61, label %95, label %62

62:                                               ; preds = %57
  %63 = and i64 %45, 4611686018427387902
  br label %64

64:                                               ; preds = %64, %62
  %65 = phi i64 [ 0, %62 ], [ %92, %64 ]
  %66 = phi i64 [ %63, %62 ], [ %93, %64 ]
  %67 = add i64 %41, %65
  %68 = add nsw i64 %67, 1
  %69 = getelementptr inbounds i32, i32* %7, i64 %68
  %70 = bitcast i32* %69 to <4 x i32>*
  %71 = load <4 x i32>, <4 x i32>* %70, align 4, !tbaa !5
  %72 = getelementptr inbounds i32, i32* %69, i64 4
  %73 = bitcast i32* %72 to <4 x i32>*
  %74 = load <4 x i32>, <4 x i32>* %73, align 4, !tbaa !5
  %75 = getelementptr inbounds i32, i32* %7, i64 %67
  %76 = bitcast i32* %75 to <4 x i32>*
  store <4 x i32> %71, <4 x i32>* %76, align 4, !tbaa !5
  %77 = getelementptr inbounds i32, i32* %75, i64 4
  %78 = bitcast i32* %77 to <4 x i32>*
  store <4 x i32> %74, <4 x i32>* %78, align 4, !tbaa !5
  %79 = or i64 %65, 8
  %80 = add i64 %41, %79
  %81 = add nsw i64 %80, 1
  %82 = getelementptr inbounds i32, i32* %7, i64 %81
  %83 = bitcast i32* %82 to <4 x i32>*
  %84 = load <4 x i32>, <4 x i32>* %83, align 4, !tbaa !5
  %85 = getelementptr inbounds i32, i32* %82, i64 4
  %86 = bitcast i32* %85 to <4 x i32>*
  %87 = load <4 x i32>, <4 x i32>* %86, align 4, !tbaa !5
  %88 = getelementptr inbounds i32, i32* %7, i64 %80
  %89 = bitcast i32* %88 to <4 x i32>*
  store <4 x i32> %84, <4 x i32>* %89, align 4, !tbaa !5
  %90 = getelementptr inbounds i32, i32* %88, i64 4
  %91 = bitcast i32* %90 to <4 x i32>*
  store <4 x i32> %87, <4 x i32>* %91, align 4, !tbaa !5
  %92 = add nuw i64 %65, 16
  %93 = add i64 %66, -2
  %94 = icmp eq i64 %93, 0
  br i1 %94, label %95, label %64, !llvm.loop !11

95:                                               ; preds = %64, %57
  %96 = phi i64 [ 0, %57 ], [ %92, %64 ]
  %97 = icmp eq i64 %60, 0
  br i1 %97, label %111, label %98

98:                                               ; preds = %95
  %99 = add i64 %41, %96
  %100 = add nsw i64 %99, 1
  %101 = getelementptr inbounds i32, i32* %7, i64 %100
  %102 = bitcast i32* %101 to <4 x i32>*
  %103 = load <4 x i32>, <4 x i32>* %102, align 4, !tbaa !5
  %104 = getelementptr inbounds i32, i32* %101, i64 4
  %105 = bitcast i32* %104 to <4 x i32>*
  %106 = load <4 x i32>, <4 x i32>* %105, align 4, !tbaa !5
  %107 = getelementptr inbounds i32, i32* %7, i64 %99
  %108 = bitcast i32* %107 to <4 x i32>*
  store <4 x i32> %103, <4 x i32>* %108, align 4, !tbaa !5
  %109 = getelementptr inbounds i32, i32* %107, i64 4
  %110 = bitcast i32* %109 to <4 x i32>*
  store <4 x i32> %106, <4 x i32>* %110, align 4, !tbaa !5
  br label %111

111:                                              ; preds = %95, %98
  %112 = icmp eq i64 %46, %58
  br i1 %112, label %125, label %113

113:                                              ; preds = %55, %111
  %114 = phi i64 [ %41, %55 ], [ %59, %111 ]
  br label %118

115:                                              ; preds = %53
  %116 = shl i64 %41, 32
  %117 = ashr exact i64 %116, 32
  br label %125

118:                                              ; preds = %113, %118
  %119 = phi i64 [ %120, %118 ], [ %114, %113 ]
  %120 = add nsw i64 %119, 1
  %121 = getelementptr inbounds i32, i32* %7, i64 %120
  %122 = load i32, i32* %121, align 4, !tbaa !5
  %123 = getelementptr inbounds i32, i32* %7, i64 %119
  store i32 %122, i32* %123, align 4, !tbaa !5
  %124 = icmp eq i64 %120, %14
  br i1 %124, label %125, label %118, !llvm.loop !13

125:                                              ; preds = %118, %111, %115
  %126 = phi i64 [ %117, %115 ], [ %14, %111 ], [ %14, %118 ]
  %127 = getelementptr inbounds i32, i32* %7, i64 %126
  store i32 0, i32* %127, align 4, !tbaa !5
  %128 = add nsw i32 %42, 1
  br label %129

129:                                              ; preds = %49, %125
  %130 = phi i32 [ %128, %125 ], [ %42, %49 ]
  %131 = add nsw i64 %41, -1
  %132 = icmp sgt i64 %131, %27
  %133 = add i64 %40, 1
  br i1 %132, label %39, label %134, !llvm.loop !15

134:                                              ; preds = %39, %129, %26
  %135 = phi i32 [ %28, %26 ], [ %130, %129 ], [ %42, %39 ]
  %136 = add nuw nsw i64 %27, 1
  %137 = icmp eq i64 %136, %17
  br i1 %137, label %31, label %26, !llvm.loop !16

138:                                              ; preds = %33, %138
  %139 = phi i64 [ %145, %138 ], [ 1, %33 ]
  %140 = call nonnull align 8 dereferenceable(8) %"class.std::basic_ostream"* @_ZSt16__ostream_insertIcSt11char_traitsIcEERSt13basic_ostreamIT_T0_ES6_PKS3_l(%"class.std::basic_ostream"* nonnull align 8 dereferenceable(8) @_ZSt4cout, i8* nonnull getelementptr inbounds ([2 x i8], [2 x i8]* @.str, i64 0, i64 0), i64 1)
  %141 = getelementptr inbounds i32, i32* %7, i64 %139
  %142 = load i32, i32* %141, align 4, !tbaa !5
  %143 = call nonnull align 8 dereferenceable(8) %"class.std::basic_ostream"* @_ZNSolsEi(%"class.std::basic_ostream"* nonnull align 8 dereferenceable(8) @_ZSt4cout, i32 %142)
  %144 = load i32, i32* %1, align 4, !tbaa !5
  %145 = add nuw nsw i64 %139, 1
  %146 = sub nsw i32 %144, %135
  %147 = sext i32 %146 to i64
  %148 = icmp slt i64 %145, %147
  br i1 %148, label %138, label %149, !llvm.loop !17

149:                                              ; preds = %138, %0, %10, %33, %31
  call void @llvm.stackrestore(i8* %6)
  call void @llvm.lifetime.end.p0i8(i64 4, i8* nonnull %2) #7
  ret i32 0
}

; Function Attrs: argmemonly mustprogress nofree nosync nounwind willreturn
declare void @llvm.lifetime.start.p0i8(i64 immarg, i8* nocapture) #4

declare nonnull align 8 dereferenceable(16) %"class.std::basic_istream"* @_ZNSirsERi(%"class.std::basic_istream"* nonnull align 8 dereferenceable(16), i32* nonnull align 4 dereferenceable(4)) local_unnamed_addr #0

; Function Attrs: mustprogress nofree nosync nounwind willreturn
declare i8* @llvm.stacksave() #5

declare nonnull align 8 dereferenceable(8) %"class.std::basic_ostream"* @_ZNSolsEi(%"class.std::basic_ostream"* nonnull align 8 dereferenceable(8), i32) local_unnamed_addr #0

; Function Attrs: mustprogress nofree nosync nounwind willreturn
declare void @llvm.stackrestore(i8*) #5

; Function Attrs: argmemonly mustprogress nofree nosync nounwind willreturn
declare void @llvm.lifetime.end.p0i8(i64 immarg, i8* nocapture) #4

declare nonnull align 8 dereferenceable(8) %"class.std::basic_ostream"* @_ZSt16__ostream_insertIcSt11char_traitsIcEERSt13basic_ostreamIT_T0_ES6_PKS3_l(%"class.std::basic_ostream"* nonnull align 8 dereferenceable(8), i8*, i64) local_unnamed_addr #0

; Function Attrs: sspstrong uwtable
define internal void @_GLOBAL__sub_I_1808.cpp() #6 section ".text.startup" {
  tail call void @_ZNSt8ios_base4InitC1Ev(%"class.std::ios_base::Init"* nonnull align 1 dereferenceable(1) @_ZStL8__ioinit)
  %1 = tail call i32 @__cxa_atexit(void (i8*)* bitcast (void (%"class.std::ios_base::Init"*)* @_ZNSt8ios_base4InitD1Ev to void (i8*)*), i8* getelementptr inbounds (%"class.std::ios_base::Init", %"class.std::ios_base::Init"* @_ZStL8__ioinit, i64 0, i32 0), i8* nonnull @__dso_handle) #7
  ret void
}


!llvm.module.flags = !{!0, !1, !2, !3}
!llvm.ident = !{!4}

!0 = !{i32 1, !"wchar_size", i32 4}
!1 = !{i32 7, !"PIC Level", i32 2}
!2 = !{i32 7, !"PIE Level", i32 2}
!3 = !{i32 7, !"uwtable", i32 1}
!4 = !{!"clang version 13.0.0"}
!5 = !{!6, !6, i64 0}
!6 = !{!"int", !7, i64 0}
!7 = !{!"omnipotent char", !8, i64 0}
!8 = !{!"Simple C++ TBAA"}
!9 = distinct !{!9, !10}
!10 = !{!"llvm.loop.mustprogress"}
!11 = distinct !{!11, !10, !12}
!12 = !{!"llvm.loop.isvectorized", i32 1}
!13 = distinct !{!13, !10, !14, !12}
!14 = !{!"llvm.loop.unroll.runtime.disable"}
!15 = distinct !{!15, !10}
!16 = distinct !{!16, !10}
!17 = distinct !{!17, !10, !18}
!18 = !{!"llvm.loop.peeled.count", i32 1}
